target datalayout = "e-m:e-p270:32:32-p271:32:32-p272:64:64-i64:64-i128:128-f80:128-n8:16:32:64-S128"
target triple = "x86_64-pc-linux-gnu"

%struct._tar_header = type { [100 x i8], [8 x i8], [8 x i8], [8 x i8], [12 x i8], [12 x i8], [8 x i8], i8, [100 x i8], [6 x i8], [2 x i8], [32 x i8], [32 x i8], [8 x i8], [8 x i8], [155 x i8], [12 x i8] }

@.str = private unnamed_addr constant [6 x i8] c"<?php\00", align 1
@.str.1 = private unnamed_addr constant [5 x i8] c".tar\00", align 1

; Function Attrs: nounwind uwtable
define internal i32 @phar_tar_checksum(ptr noundef %0, i64 noundef %1) #0 {
  %3 = alloca ptr, align 8
  %4 = alloca i64, align 8
  %5 = alloca i32, align 4
  %6 = alloca ptr, align 8
  store ptr %0, ptr %3, align 8, !tbaa !4
  store i64 %1, ptr %4, align 8, !tbaa !18
  call void @llvm.lifetime.start.p0(i64 4, ptr %5) #14
  store i32 0, ptr %5, align 4, !tbaa !11
  call void @llvm.lifetime.start.p0(i64 8, ptr %6) #14
  %7 = load ptr, ptr %3, align 8, !tbaa !4
  %8 = load i64, ptr %4, align 8, !tbaa !18
  %9 = getelementptr inbounds nuw i8, ptr %7, i64 %8
  store ptr %9, ptr %6, align 8, !tbaa !4
  br label %10

10:                                               ; preds = %14, %2
  %11 = load ptr, ptr %3, align 8, !tbaa !4
  %12 = load ptr, ptr %6, align 8, !tbaa !4
  %13 = icmp ne ptr %11, %12
  br i1 %13, label %14, label %22

14:                                               ; preds = %10
  %15 = load ptr, ptr %3, align 8, !tbaa !4
  %16 = load i8, ptr %15, align 1, !tbaa !17
  %17 = zext i8 %16 to i32
  %18 = load i32, ptr %5, align 4, !tbaa !11
  %19 = add i32 %18, %17
  store i32 %19, ptr %5, align 4, !tbaa !11
  %20 = load ptr, ptr %3, align 8, !tbaa !4
  %21 = getelementptr inbounds nuw i8, ptr %20, i32 1
  store ptr %21, ptr %3, align 8, !tbaa !4
  br label %10

22:                                               ; preds = %10
  %23 = load i32, ptr %5, align 4, !tbaa !11
  call void @llvm.lifetime.end.p0(i64 8, ptr %6) #14
  call void @llvm.lifetime.end.p0(i64 4, ptr %5) #14
  ret i32 %23
}

; Function Attrs: nounwind uwtable
define internal i32 @phar_tar_number(ptr noundef %0, i64 noundef %1) #0 {
  %3 = alloca ptr, align 8
  %4 = alloca i64, align 8
  %5 = alloca i32, align 4
  %6 = alloca i64, align 8
  store ptr %0, ptr %3, align 8, !tbaa !4
  store i64 %1, ptr %4, align 8, !tbaa !18
  call void @llvm.lifetime.start.p0(i64 4, ptr %5) #14
  store i32 0, ptr %5, align 4, !tbaa !11
  call void @llvm.lifetime.start.p0(i64 8, ptr %6) #14
  store i64 0, ptr %6, align 8, !tbaa !18
  br label %7

7:                                                ; preds = %20, %2
  %8 = load i64, ptr %6, align 8, !tbaa !18
  %9 = load i64, ptr %4, align 8, !tbaa !18
  %10 = icmp ult i64 %8, %9
  br i1 %10, label %11, label %18

11:                                               ; preds = %7
  %12 = load ptr, ptr %3, align 8, !tbaa !4
  %13 = load i64, ptr %6, align 8, !tbaa !18
  %14 = getelementptr inbounds nuw i8, ptr %12, i64 %13
  %15 = load i8, ptr %14, align 1, !tbaa !17
  %16 = sext i8 %15 to i32
  %17 = icmp eq i32 %16, 32
  br label %18

18:                                               ; preds = %11, %7
  %19 = phi i1 [ false, %7 ], [ %17, %11 ]
  br i1 %19, label %20, label %23

20:                                               ; preds = %18
  %21 = load i64, ptr %6, align 8, !tbaa !18
  %22 = add i64 %21, 1
  store i64 %22, ptr %6, align 8, !tbaa !18
  br label %7

23:                                               ; preds = %18
  br label %24

24:                                               ; preds = %44, %23
  %25 = load i64, ptr %6, align 8, !tbaa !18
  %26 = load i64, ptr %4, align 8, !tbaa !18
  %27 = icmp ult i64 %25, %26
  br i1 %27, label %28, label %42

28:                                               ; preds = %24
  %29 = load ptr, ptr %3, align 8, !tbaa !4
  %30 = load i64, ptr %6, align 8, !tbaa !18
  %31 = getelementptr inbounds nuw i8, ptr %29, i64 %30
  %32 = load i8, ptr %31, align 1, !tbaa !17
  %33 = sext i8 %32 to i32
  %34 = icmp sge i32 %33, 48
  br i1 %34, label %35, label %42

35:                                               ; preds = %28
  %36 = load ptr, ptr %3, align 8, !tbaa !4
  %37 = load i64, ptr %6, align 8, !tbaa !18
  %38 = getelementptr inbounds nuw i8, ptr %36, i64 %37
  %39 = load i8, ptr %38, align 1, !tbaa !17
  %40 = sext i8 %39 to i32
  %41 = icmp sle i32 %40, 55
  br label %42

42:                                               ; preds = %35, %28, %24
  %43 = phi i1 [ false, %28 ], [ false, %24 ], [ %41, %35 ]
  br i1 %43, label %44, label %56

44:                                               ; preds = %42
  %45 = load i32, ptr %5, align 4, !tbaa !11
  %46 = mul i32 %45, 8
  %47 = load ptr, ptr %3, align 8, !tbaa !4
  %48 = load i64, ptr %6, align 8, !tbaa !18
  %49 = getelementptr inbounds nuw i8, ptr %47, i64 %48
  %50 = load i8, ptr %49, align 1, !tbaa !17
  %51 = sext i8 %50 to i32
  %52 = sub nsw i32 %51, 48
  %53 = add i32 %46, %52
  store i32 %53, ptr %5, align 4, !tbaa !11
  %54 = load i64, ptr %6, align 8, !tbaa !18
  %55 = add i64 %54, 1
  store i64 %55, ptr %6, align 8, !tbaa !18
  br label %24

56:                                               ; preds = %42
  %57 = load i32, ptr %5, align 4, !tbaa !11
  call void @llvm.lifetime.end.p0(i64 8, ptr %6) #14
  call void @llvm.lifetime.end.p0(i64 4, ptr %5) #14
  ret i32 %57
}

; Function Attrs: nounwind uwtable
define hidden zeroext i1 @phar_is_tar(ptr noundef %0, ptr noundef %1) #0 {
  %3 = alloca i1, align 1
  %4 = alloca ptr, align 8
  %5 = alloca ptr, align 8
  %6 = alloca ptr, align 8
  %7 = alloca i32, align 4
  %8 = alloca i8, align 1
  %9 = alloca [8 x i8], align 1
  %10 = alloca ptr, align 8
  %11 = alloca i32, align 4
  store ptr %0, ptr %4, align 8, !tbaa !4
  store ptr %1, ptr %5, align 8, !tbaa !4
  call void @llvm.lifetime.start.p0(i64 8, ptr %6) #14
  %12 = load ptr, ptr %4, align 8, !tbaa !4
  store ptr %12, ptr %6, align 8, !tbaa !9
  call void @llvm.lifetime.start.p0(i64 4, ptr %7) #14
  %13 = load ptr, ptr %6, align 8, !tbaa !9
  %14 = getelementptr inbounds nuw %struct._tar_header, ptr %13, i32 0, i32 6
  %15 = getelementptr inbounds [8 x i8], ptr %14, i64 0, i64 0
  %16 = call i32 @phar_tar_number(ptr noundef %15, i64 noundef 8)
  store i32 %16, ptr %7, align 4, !tbaa !11
  call void @llvm.lifetime.start.p0(i64 1, ptr %8) #14
  call void @llvm.lifetime.start.p0(i64 8, ptr %9) #14
  call void @llvm.lifetime.start.p0(i64 8, ptr %10) #14
  %17 = load ptr, ptr %4, align 8, !tbaa !4
  %18 = call i32 @strncmp(ptr noundef %17, ptr noundef @.str, i64 noundef 5) #15
  %19 = icmp ne i32 %18, 0
  br i1 %19, label %21, label %20

20:                                               ; preds = %2
  store i1 false, ptr %3, align 1
  store i32 1, ptr %11, align 4
  br label %66

21:                                               ; preds = %2
  %22 = getelementptr inbounds [8 x i8], ptr %9, i64 0, i64 0
  %23 = load ptr, ptr %6, align 8, !tbaa !9
  %24 = getelementptr inbounds nuw %struct._tar_header, ptr %23, i32 0, i32 6
  %25 = getelementptr inbounds [8 x i8], ptr %24, i64 0, i64 0
  call void @llvm.memcpy.p0.p0.i64(ptr align 1 %22, ptr align 1 %25, i64 8, i1 false)
  %26 = load ptr, ptr %6, align 8, !tbaa !9
  %27 = getelementptr inbounds nuw %struct._tar_header, ptr %26, i32 0, i32 6
  %28 = getelementptr inbounds [8 x i8], ptr %27, i64 0, i64 0
  call void @llvm.memset.p0.i64(ptr align 1 %28, i8 32, i64 8, i1 false)
  %29 = load i32, ptr %7, align 4, !tbaa !11
  %30 = load ptr, ptr %4, align 8, !tbaa !4
  %31 = call i32 @phar_tar_checksum(ptr noundef %30, i64 noundef 512)
  %32 = icmp eq i32 %29, %31
  %33 = zext i1 %32 to i8
  store i8 %33, ptr %8, align 1, !tbaa !13
  %34 = load ptr, ptr %6, align 8, !tbaa !9
  %35 = getelementptr inbounds nuw %struct._tar_header, ptr %34, i32 0, i32 6
  %36 = getelementptr inbounds [8 x i8], ptr %35, i64 0, i64 0
  %37 = getelementptr inbounds [8 x i8], ptr %9, i64 0, i64 0
  call void @llvm.memcpy.p0.p0.i64(ptr align 1 %36, ptr align 1 %37, i64 8, i1 false)
  %38 = load ptr, ptr %5, align 8, !tbaa !4
  %39 = call ptr @strrchr(ptr noundef %38, i32 noundef 47) #15
  store ptr %39, ptr %10, align 8, !tbaa !4
  %40 = icmp ne ptr %39, null
  br i1 %40, label %41, label %43

41:                                               ; preds = %21
  %42 = load ptr, ptr %10, align 8, !tbaa !4
  store ptr %42, ptr %5, align 8, !tbaa !4
  br label %43

43:                                               ; preds = %41, %21
  %44 = load i8, ptr %8, align 1, !tbaa !13, !range !15, !noundef !16
  %45 = trunc i8 %44 to i1
  br i1 %45, label %63, label %46

46:                                               ; preds = %43
  %47 = load ptr, ptr %5, align 8, !tbaa !4
  %48 = call ptr @strstr(ptr noundef %47, ptr noundef @.str.1) #15
  store ptr %48, ptr %10, align 8, !tbaa !4
  %49 = icmp ne ptr %48, null
  br i1 %49, label %50, label %63

50:                                               ; preds = %46
  %51 = load ptr, ptr %10, align 8, !tbaa !4
  %52 = getelementptr inbounds i8, ptr %51, i64 4
  %53 = load i8, ptr %52, align 1, !tbaa !17
  %54 = sext i8 %53 to i32
  %55 = icmp eq i32 %54, 0
  br i1 %55, label %62, label %56

56:                                               ; preds = %50
  %57 = load ptr, ptr %10, align 8, !tbaa !4
  %58 = getelementptr inbounds i8, ptr %57, i64 4
  %59 = load i8, ptr %58, align 1, !tbaa !17
  %60 = sext i8 %59 to i32
  %61 = icmp eq i32 %60, 46
  br i1 %61, label %62, label %63

62:                                               ; preds = %56, %50
  store i1 true, ptr %3, align 1
  store i32 1, ptr %11, align 4
  br label %66

63:                                               ; preds = %56, %46, %43
  %64 = load i8, ptr %8, align 1, !tbaa !13, !range !15, !noundef !16
  %65 = trunc i8 %64 to i1
  store i1 %65, ptr %3, align 1
  store i32 1, ptr %11, align 4
  br label %66

66:                                               ; preds = %63, %62, %20
  call void @llvm.lifetime.end.p0(i64 8, ptr %10) #14
  call void @llvm.lifetime.end.p0(i64 8, ptr %9) #14
  call void @llvm.lifetime.end.p0(i64 1, ptr %8) #14
  call void @llvm.lifetime.end.p0(i64 4, ptr %7) #14
  call void @llvm.lifetime.end.p0(i64 8, ptr %6) #14
  %67 = load i1, ptr %3, align 1
  ret i1 %67
}