; Function Attrs: nofree nounwind memory(read, argmem: readwrite, inaccessiblemem: none) uwtable
define hidden noundef zeroext i1 @phar_is_tar(ptr noundef captures(none) %0, ptr noundef readonly %1) local_unnamed_addr #0 {
  %3 = getelementptr inbounds nuw i8, ptr %0, i64 148
  br label %4

4:                                                ; preds = %8, %2
  %.019.i = phi i64 [ 0, %2 ], [ %9, %8 ]
  %5 = getelementptr inbounds nuw i8, ptr %3, i64 %.019.i
  %6 = load i8, ptr %5, align 1, !tbaa !4
  %7 = icmp eq i8 %6, 32
  br i1 %7, label %8, label %.critedge.i

8:                                                ; preds = %4
  %9 = add nuw nsw i64 %.019.i, 1
  %exitcond.not.i = icmp eq i64 %9, 8
  br i1 %exitcond.not.i, label %phar_tar_number.exit, label %4

.critedge.i:                                      ; preds = %4
  %10 = icmp samesign ult i64 %.019.i, 8
  br i1 %10, label %.lr.ph.i, label %phar_tar_number.exit

.lr.ph.i:                                         ; preds = %.critedge.i, %14
  %.121.i = phi i64 [ %18, %14 ], [ %.019.i, %.critedge.i ]
  %.01720.i = phi i32 [ %17, %14 ], [ 0, %.critedge.i ]
  %11 = getelementptr inbounds nuw i8, ptr %3, i64 %.121.i
  %12 = load i8, ptr %11, align 1, !tbaa !4
  %13 = and i8 %12, -8
  %or.cond.i = icmp eq i8 %13, 48
  br i1 %or.cond.i, label %14, label %phar_tar_number.exit

14:                                               ; preds = %.lr.ph.i
  %15 = shl i32 %.01720.i, 3
  %narrow.i = add nsw i8 %12, -48
  %16 = zext nneg i8 %narrow.i to i32
  %17 = or disjoint i32 %15, %16
  %18 = add nuw nsw i64 %.121.i, 1
  %exitcond24.not.i = icmp eq i64 %18, 8
  br i1 %exitcond24.not.i, label %phar_tar_number.exit, label %.lr.ph.i

phar_tar_number.exit:                             ; preds = %8, %.lr.ph.i, %14, %.critedge.i
  %.017.lcssa.i = phi i32 [ 0, %.critedge.i ], [ %17, %14 ], [ %.01720.i, %.lr.ph.i ], [ 0, %8 ]
  %19 = tail call i32 @strncmp(ptr noundef nonnull dereferenceable(1) %0, ptr noundef nonnull dereferenceable(6) @.str, i64 noundef 5) #14
  %.not = icmp eq i32 %19, 0
  br i1 %.not, label %32, label %20

20:                                               ; preds = %phar_tar_number.exit
  %.sroa.0.0.copyload = load i64, ptr %3, align 1
  store i64 2314885530818453536, ptr %3, align 1
  br label %.lr.ph.i22

.lr.ph.i22:                                       ; preds = %.lr.ph.i22, %20
  %.010.i.idx = phi i64 [ %.010.i.add, %.lr.ph.i22 ], [ 0, %20 ]
  %.079.i = phi i32 [ %23, %.lr.ph.i22 ], [ 0, %20 ]
  %.010.i.ptr = getelementptr inbounds nuw i8, ptr %0, i64 %.010.i.idx
  %21 = load i8, ptr %.010.i.ptr, align 1, !tbaa !4
  %22 = zext i8 %21 to i32
  %23 = add i32 %.079.i, %22
  %.010.i.add = add nuw nsw i64 %.010.i.idx, 1
  %.not.i = icmp eq i64 %.010.i.add, 512
  br i1 %.not.i, label %phar_tar_checksum.exit, label %.lr.ph.i22

phar_tar_checksum.exit:                           ; preds = %.lr.ph.i22
  %24 = icmp eq i32 %.017.lcssa.i, %23
  store i64 %.sroa.0.0.copyload, ptr %3, align 1
  br i1 %24, label %31, label %25

25:                                               ; preds = %phar_tar_checksum.exit
  %26 = tail call ptr @strrchr(ptr noundef nonnull dereferenceable(1) %1, i32 noundef 47) #14
  %.not20 = icmp eq ptr %26, null
  %spec.select = select i1 %.not20, ptr %1, ptr %26
  %27 = tail call ptr @strstr(ptr noundef nonnull dereferenceable(1) %spec.select, ptr noundef nonnull dereferenceable(1) @.str.1) #14
  %.not21 = icmp eq ptr %27, null
  br i1 %.not21, label %31, label %28

28:                                               ; preds = %25
  %29 = getelementptr inbounds nuw i8, ptr %27, i64 4
  %30 = load i8, ptr %29, align 1, !tbaa !4
  switch i8 %30, label %31 [
    i8 0, label %32
    i8 46, label %32
  ]

31:                                               ; preds = %28, %25, %phar_tar_checksum.exit
  br label %32

32:                                               ; preds = %28, %28, %phar_tar_number.exit, %31
  %.0 = phi i1 [ %24, %31 ], [ false, %phar_tar_number.exit ], [ true, %28 ], [ true, %28 ]
  ret i1 %.0
}